
./Ch13DataEnc_XorEnc:     file format elf32-i386


Disassembly of section .init:

08049000 <_init>:
 8049000:	f3 0f 1e fb          	endbr32
 8049004:	53                   	push   %ebx
 8049005:	83 ec 08             	sub    $0x8,%esp
 8049008:	e8 d3 00 00 00       	call   80490e0 <__x86.get_pc_thunk.bx>
 804900d:	81 c3 f3 2f 00 00    	add    $0x2ff3,%ebx
 8049013:	8b 83 fc ff ff ff    	mov    -0x4(%ebx),%eax
 8049019:	85 c0                	test   %eax,%eax
 804901b:	74 02                	je     804901f <_init+0x1f>
 804901d:	ff d0                	call   *%eax
 804901f:	83 c4 08             	add    $0x8,%esp
 8049022:	5b                   	pop    %ebx
 8049023:	c3                   	ret

Disassembly of section .plt:

08049030 <.plt>:
 8049030:	ff 35 04 c0 04 08    	push   0x804c004
 8049036:	ff 25 08 c0 04 08    	jmp    *0x804c008
 804903c:	00 00                	add    %al,(%eax)
	...

08049040 <printf@plt>:
 8049040:	ff 25 0c c0 04 08    	jmp    *0x804c00c
 8049046:	68 00 00 00 00       	push   $0x0
 804904b:	e9 e0 ff ff ff       	jmp    8049030 <.plt>

08049050 <puts@plt>:
 8049050:	ff 25 10 c0 04 08    	jmp    *0x804c010
 8049056:	68 08 00 00 00       	push   $0x8
 804905b:	e9 d0 ff ff ff       	jmp    8049030 <.plt>

08049060 <strlen@plt>:
 8049060:	ff 25 14 c0 04 08    	jmp    *0x804c014
 8049066:	68 10 00 00 00       	push   $0x10
 804906b:	e9 c0 ff ff ff       	jmp    8049030 <.plt>

08049070 <__libc_start_main@plt>:
 8049070:	ff 25 18 c0 04 08    	jmp    *0x804c018
 8049076:	68 18 00 00 00       	push   $0x18
 804907b:	e9 b0 ff ff ff       	jmp    8049030 <.plt>

08049080 <__isoc99_scanf@plt>:
 8049080:	ff 25 1c c0 04 08    	jmp    *0x804c01c
 8049086:	68 20 00 00 00       	push   $0x20
 804908b:	e9 a0 ff ff ff       	jmp    8049030 <.plt>

Disassembly of section .text:

08049090 <_start>:
 8049090:	f3 0f 1e fb          	endbr32
 8049094:	31 ed                	xor    %ebp,%ebp
 8049096:	5e                   	pop    %esi
 8049097:	89 e1                	mov    %esp,%ecx
 8049099:	83 e4 f0             	and    $0xfffffff0,%esp
 804909c:	50                   	push   %eax
 804909d:	54                   	push   %esp
 804909e:	52                   	push   %edx
 804909f:	e8 23 00 00 00       	call   80490c7 <_start+0x37>
 80490a4:	81 c3 5c 2f 00 00    	add    $0x2f5c,%ebx
 80490aa:	8d 83 d0 d3 ff ff    	lea    -0x2c30(%ebx),%eax
 80490b0:	50                   	push   %eax
 80490b1:	8d 83 60 d3 ff ff    	lea    -0x2ca0(%ebx),%eax
 80490b7:	50                   	push   %eax
 80490b8:	51                   	push   %ecx
 80490b9:	56                   	push   %esi
 80490ba:	c7 c0 7d 92 04 08    	mov    $0x804927d,%eax
 80490c0:	50                   	push   %eax
 80490c1:	e8 aa ff ff ff       	call   8049070 <__libc_start_main@plt>
 80490c6:	f4                   	hlt
 80490c7:	8b 1c 24             	mov    (%esp),%ebx
 80490ca:	c3                   	ret
 80490cb:	66 90                	xchg   %ax,%ax
 80490cd:	66 90                	xchg   %ax,%ax
 80490cf:	90                   	nop

080490d0 <_dl_relocate_static_pie>:
 80490d0:	f3 0f 1e fb          	endbr32
 80490d4:	c3                   	ret
 80490d5:	66 90                	xchg   %ax,%ax
 80490d7:	66 90                	xchg   %ax,%ax
 80490d9:	66 90                	xchg   %ax,%ax
 80490db:	66 90                	xchg   %ax,%ax
 80490dd:	66 90                	xchg   %ax,%ax
 80490df:	90                   	nop

080490e0 <__x86.get_pc_thunk.bx>:
 80490e0:	8b 1c 24             	mov    (%esp),%ebx
 80490e3:	c3                   	ret
 80490e4:	66 90                	xchg   %ax,%ax
 80490e6:	66 90                	xchg   %ax,%ax
 80490e8:	66 90                	xchg   %ax,%ax
 80490ea:	66 90                	xchg   %ax,%ax
 80490ec:	66 90                	xchg   %ax,%ax
 80490ee:	66 90                	xchg   %ax,%ax

080490f0 <deregister_tm_clones>:
 80490f0:	b8 6c c1 04 08       	mov    $0x804c16c,%eax
 80490f5:	3d 6c c1 04 08       	cmp    $0x804c16c,%eax
 80490fa:	74 24                	je     8049120 <deregister_tm_clones+0x30>
 80490fc:	b8 00 00 00 00       	mov    $0x0,%eax
 8049101:	85 c0                	test   %eax,%eax
 8049103:	74 1b                	je     8049120 <deregister_tm_clones+0x30>
 8049105:	55                   	push   %ebp
 8049106:	89 e5                	mov    %esp,%ebp
 8049108:	83 ec 14             	sub    $0x14,%esp
 804910b:	68 6c c1 04 08       	push   $0x804c16c
 8049110:	ff d0                	call   *%eax
 8049112:	83 c4 10             	add    $0x10,%esp
 8049115:	c9                   	leave
 8049116:	c3                   	ret
 8049117:	8d b4 26 00 00 00 00 	lea    0x0(%esi,%eiz,1),%esi
 804911e:	66 90                	xchg   %ax,%ax
 8049120:	c3                   	ret
 8049121:	8d b4 26 00 00 00 00 	lea    0x0(%esi,%eiz,1),%esi
 8049128:	8d b4 26 00 00 00 00 	lea    0x0(%esi,%eiz,1),%esi
 804912f:	90                   	nop

08049130 <register_tm_clones>:
 8049130:	b8 6c c1 04 08       	mov    $0x804c16c,%eax
 8049135:	2d 6c c1 04 08       	sub    $0x804c16c,%eax
 804913a:	89 c2                	mov    %eax,%edx
 804913c:	c1 e8 1f             	shr    $0x1f,%eax
 804913f:	c1 fa 02             	sar    $0x2,%edx
 8049142:	01 d0                	add    %edx,%eax
 8049144:	d1 f8                	sar    $1,%eax
 8049146:	74 20                	je     8049168 <register_tm_clones+0x38>
 8049148:	ba 00 00 00 00       	mov    $0x0,%edx
 804914d:	85 d2                	test   %edx,%edx
 804914f:	74 17                	je     8049168 <register_tm_clones+0x38>
 8049151:	55                   	push   %ebp
 8049152:	89 e5                	mov    %esp,%ebp
 8049154:	83 ec 10             	sub    $0x10,%esp
 8049157:	50                   	push   %eax
 8049158:	68 6c c1 04 08       	push   $0x804c16c
 804915d:	ff d2                	call   *%edx
 804915f:	83 c4 10             	add    $0x10,%esp
 8049162:	c9                   	leave
 8049163:	c3                   	ret
 8049164:	8d 74 26 00          	lea    0x0(%esi,%eiz,1),%esi
 8049168:	c3                   	ret
 8049169:	8d b4 26 00 00 00 00 	lea    0x0(%esi,%eiz,1),%esi

08049170 <__do_global_dtors_aux>:
 8049170:	f3 0f 1e fb          	endbr32
 8049174:	80 3d 6c c1 04 08 00 	cmpb   $0x0,0x804c16c
 804917b:	75 1b                	jne    8049198 <__do_global_dtors_aux+0x28>
 804917d:	55                   	push   %ebp
 804917e:	89 e5                	mov    %esp,%ebp
 8049180:	83 ec 08             	sub    $0x8,%esp
 8049183:	e8 68 ff ff ff       	call   80490f0 <deregister_tm_clones>
 8049188:	c6 05 6c c1 04 08 01 	movb   $0x1,0x804c16c
 804918f:	c9                   	leave
 8049190:	c3                   	ret
 8049191:	8d b4 26 00 00 00 00 	lea    0x0(%esi,%eiz,1),%esi
 8049198:	c3                   	ret
 8049199:	8d b4 26 00 00 00 00 	lea    0x0(%esi,%eiz,1),%esi

080491a0 <frame_dummy>:
 80491a0:	f3 0f 1e fb          	endbr32
 80491a4:	eb 8a                	jmp    8049130 <register_tm_clones>

080491a6 <print_msg>:
 80491a6:	55                   	push   %ebp
 80491a7:	89 e5                	mov    %esp,%ebp
 80491a9:	83 ec 18             	sub    $0x18,%esp
 80491ac:	83 ec 0c             	sub    $0xc,%esp
 80491af:	68 40 c0 04 08       	push   $0x804c040
 80491b4:	e8 a7 fe ff ff       	call   8049060 <strlen@plt>
 80491b9:	83 c4 10             	add    $0x10,%esp
 80491bc:	89 45 f4             	mov    %eax,-0xc(%ebp)
 80491bf:	c7 45 e8 00 00 00 00 	movl   $0x0,-0x18(%ebp)
 80491c6:	eb 73                	jmp    804923b <print_msg+0x95>
 80491c8:	8b 45 e8             	mov    -0x18(%ebp),%eax
 80491cb:	ba 00 00 00 00       	mov    $0x0,%edx
 80491d0:	f7 75 f4             	divl   -0xc(%ebp)
 80491d3:	89 d0                	mov    %edx,%eax
 80491d5:	0f b6 80 40 c0 04 08 	movzbl 0x804c040(%eax),%eax
 80491dc:	0f be c8             	movsbl %al,%ecx
 80491df:	8b 45 e8             	mov    -0x18(%ebp),%eax
 80491e2:	83 c0 01             	add    $0x1,%eax
 80491e5:	ba 00 00 00 00       	mov    $0x0,%edx
 80491ea:	f7 75 f4             	divl   -0xc(%ebp)
 80491ed:	89 d0                	mov    %edx,%eax
 80491ef:	0f b6 80 40 c0 04 08 	movzbl 0x804c040(%eax),%eax
 80491f6:	0f be c0             	movsbl %al,%eax
 80491f9:	01 c8                	add    %ecx,%eax
 80491fb:	01 45 ec             	add    %eax,-0x14(%ebp)
 80491fe:	8b 45 e8             	mov    -0x18(%ebp),%eax
 8049201:	83 c0 01             	add    $0x1,%eax
 8049204:	ba 00 00 00 00       	mov    $0x0,%edx
 8049209:	f7 75 f4             	divl   -0xc(%ebp)
 804920c:	89 d0                	mov    %edx,%eax
 804920e:	0f b6 80 40 c0 04 08 	movzbl 0x804c040(%eax),%eax
 8049215:	0f be c8             	movsbl %al,%ecx
 8049218:	8b 45 e8             	mov    -0x18(%ebp),%eax
 804921b:	83 c0 02             	add    $0x2,%eax
 804921e:	ba 00 00 00 00       	mov    $0x0,%edx
 8049223:	f7 75 f4             	divl   -0xc(%ebp)
 8049226:	89 d0                	mov    %edx,%eax
 8049228:	0f b6 80 40 c0 04 08 	movzbl 0x804c040(%eax),%eax
 804922f:	0f be c0             	movsbl %al,%eax
 8049232:	01 c8                	add    %ecx,%eax
 8049234:	01 45 f0             	add    %eax,-0x10(%ebp)
 8049237:	83 45 e8 01          	addl   $0x1,-0x18(%ebp)
 804923b:	8b 45 f4             	mov    -0xc(%ebp),%eax
 804923e:	6b c0 64             	imul   $0x64,%eax,%eax
 8049241:	39 45 e8             	cmp    %eax,-0x18(%ebp)
 8049244:	72 82                	jb     80491c8 <print_msg+0x22>
 8049246:	8b 45 ec             	mov    -0x14(%ebp),%eax
 8049249:	3b 45 f0             	cmp    -0x10(%ebp),%eax
 804924c:	75 17                	jne    8049265 <print_msg+0xbf>
 804924e:	83 ec 08             	sub    $0x8,%esp
 8049251:	68 40 c0 04 08       	push   $0x804c040
 8049256:	68 08 a0 04 08       	push   $0x804a008
 804925b:	e8 e0 fd ff ff       	call   8049040 <printf@plt>
 8049260:	83 c4 10             	add    $0x10,%esp
 8049263:	eb 15                	jmp    804927a <print_msg+0xd4>
 8049265:	83 ec 08             	sub    $0x8,%esp
 8049268:	68 40 c0 04 08       	push   $0x804c040
 804926d:	68 08 a0 04 08       	push   $0x804a008
 8049272:	e8 c9 fd ff ff       	call   8049040 <printf@plt>
 8049277:	83 c4 10             	add    $0x10,%esp
 804927a:	90                   	nop
 804927b:	c9                   	leave
 804927c:	c3                   	ret

0804927d <main>:
 804927d:	8d 4c 24 04          	lea    0x4(%esp),%ecx
 8049281:	83 e4 f0             	and    $0xfffffff0,%esp
 8049284:	ff 71 fc             	push   -0x4(%ecx)
 8049287:	55                   	push   %ebp
 8049288:	89 e5                	mov    %esp,%ebp
 804928a:	51                   	push   %ecx
 804928b:	83 ec 14             	sub    $0x14,%esp
 804928e:	e8 13 ff ff ff       	call   80491a6 <print_msg>
 8049293:	83 ec 0c             	sub    $0xc,%esp
 8049296:	68 0b a0 04 08       	push   $0x804a00b
 804929b:	e8 a0 fd ff ff       	call   8049040 <printf@plt>
 80492a0:	83 c4 10             	add    $0x10,%esp
 80492a3:	83 ec 0c             	sub    $0xc,%esp
 80492a6:	68 60 c1 04 08       	push   $0x804c160
 80492ab:	e8 b0 fd ff ff       	call   8049060 <strlen@plt>
 80492b0:	83 c4 10             	add    $0x10,%esp
 80492b3:	89 45 f4             	mov    %eax,-0xc(%ebp)
 80492b6:	c7 45 f0 00 00 00 00 	movl   $0x0,-0x10(%ebp)
 80492bd:	eb 1e                	jmp    80492dd <main+0x60>
 80492bf:	8b 45 f0             	mov    -0x10(%ebp),%eax
 80492c2:	05 60 c1 04 08       	add    $0x804c160,%eax
 80492c7:	0f b6 00             	movzbl (%eax),%eax
 80492ca:	83 f0 6b             	xor    $0x6b,%eax
 80492cd:	89 c2                	mov    %eax,%edx
 80492cf:	8b 45 f0             	mov    -0x10(%ebp),%eax
 80492d2:	05 60 c1 04 08       	add    $0x804c160,%eax
 80492d7:	88 10                	mov    %dl,(%eax)
 80492d9:	83 45 f0 01          	addl   $0x1,-0x10(%ebp)
 80492dd:	8b 45 f0             	mov    -0x10(%ebp),%eax
 80492e0:	3b 45 f4             	cmp    -0xc(%ebp),%eax
 80492e3:	7c da                	jl     80492bf <main+0x42>
 80492e5:	83 ec 08             	sub    $0x8,%esp
 80492e8:	68 70 c1 04 08       	push   $0x804c170
 80492ed:	68 21 a0 04 08       	push   $0x804a021
 80492f2:	e8 89 fd ff ff       	call   8049080 <__isoc99_scanf@plt>
 80492f7:	83 c4 10             	add    $0x10,%esp
 80492fa:	c7 45 f0 00 00 00 00 	movl   $0x0,-0x10(%ebp)
 8049301:	eb 35                	jmp    8049338 <main+0xbb>
 8049303:	8b 45 f0             	mov    -0x10(%ebp),%eax
 8049306:	05 60 c1 04 08       	add    $0x804c160,%eax
 804930b:	0f b6 10             	movzbl (%eax),%edx
 804930e:	8b 45 f0             	mov    -0x10(%ebp),%eax
 8049311:	05 70 c1 04 08       	add    $0x804c170,%eax
 8049316:	0f b6 00             	movzbl (%eax),%eax
 8049319:	38 c2                	cmp    %al,%dl
 804931b:	74 17                	je     8049334 <main+0xb7>
 804931d:	83 ec 0c             	sub    $0xc,%esp
 8049320:	68 25 a0 04 08       	push   $0x804a025
 8049325:	e8 26 fd ff ff       	call   8049050 <puts@plt>
 804932a:	83 c4 10             	add    $0x10,%esp
 804932d:	b8 00 00 00 00       	mov    $0x0,%eax
 8049332:	eb 21                	jmp    8049355 <main+0xd8>
 8049334:	83 45 f0 01          	addl   $0x1,-0x10(%ebp)
 8049338:	8b 45 f0             	mov    -0x10(%ebp),%eax
 804933b:	3b 45 f4             	cmp    -0xc(%ebp),%eax
 804933e:	7c c3                	jl     8049303 <main+0x86>
 8049340:	83 ec 0c             	sub    $0xc,%esp
 8049343:	68 30 a0 04 08       	push   $0x804a030
 8049348:	e8 03 fd ff ff       	call   8049050 <puts@plt>
 804934d:	83 c4 10             	add    $0x10,%esp
 8049350:	b8 00 00 00 00       	mov    $0x0,%eax
 8049355:	8b 4d fc             	mov    -0x4(%ebp),%ecx
 8049358:	c9                   	leave
 8049359:	8d 61 fc             	lea    -0x4(%ecx),%esp
 804935c:	c3                   	ret
 804935d:	66 90                	xchg   %ax,%ax
 804935f:	90                   	nop

08049360 <__libc_csu_init>:
 8049360:	f3 0f 1e fb          	endbr32
 8049364:	55                   	push   %ebp
 8049365:	e8 6b 00 00 00       	call   80493d5 <__x86.get_pc_thunk.bp>
 804936a:	81 c5 96 2c 00 00    	add    $0x2c96,%ebp
 8049370:	57                   	push   %edi
 8049371:	56                   	push   %esi
 8049372:	53                   	push   %ebx
 8049373:	83 ec 0c             	sub    $0xc,%esp
 8049376:	89 eb                	mov    %ebp,%ebx
 8049378:	8b 7c 24 28          	mov    0x28(%esp),%edi
 804937c:	e8 7f fc ff ff       	call   8049000 <_init>
 8049381:	8d 9d 10 ff ff ff    	lea    -0xf0(%ebp),%ebx
 8049387:	8d 85 0c ff ff ff    	lea    -0xf4(%ebp),%eax
 804938d:	29 c3                	sub    %eax,%ebx
 804938f:	c1 fb 02             	sar    $0x2,%ebx
 8049392:	74 29                	je     80493bd <__libc_csu_init+0x5d>
 8049394:	31 f6                	xor    %esi,%esi
 8049396:	8d b4 26 00 00 00 00 	lea    0x0(%esi,%eiz,1),%esi
 804939d:	8d 76 00             	lea    0x0(%esi),%esi
 80493a0:	83 ec 04             	sub    $0x4,%esp
 80493a3:	57                   	push   %edi
 80493a4:	ff 74 24 2c          	push   0x2c(%esp)
 80493a8:	ff 74 24 2c          	push   0x2c(%esp)
 80493ac:	ff 94 b5 0c ff ff ff 	call   *-0xf4(%ebp,%esi,4)
 80493b3:	83 c6 01             	add    $0x1,%esi
 80493b6:	83 c4 10             	add    $0x10,%esp
 80493b9:	39 f3                	cmp    %esi,%ebx
 80493bb:	75 e3                	jne    80493a0 <__libc_csu_init+0x40>
 80493bd:	83 c4 0c             	add    $0xc,%esp
 80493c0:	5b                   	pop    %ebx
 80493c1:	5e                   	pop    %esi
 80493c2:	5f                   	pop    %edi
 80493c3:	5d                   	pop    %ebp
 80493c4:	c3                   	ret
 80493c5:	8d b4 26 00 00 00 00 	lea    0x0(%esi,%eiz,1),%esi
 80493cc:	8d 74 26 00          	lea    0x0(%esi,%eiz,1),%esi

080493d0 <__libc_csu_fini>:
 80493d0:	f3 0f 1e fb          	endbr32
 80493d4:	c3                   	ret

080493d5 <__x86.get_pc_thunk.bp>:
 80493d5:	8b 2c 24             	mov    (%esp),%ebp
 80493d8:	c3                   	ret

Disassembly of section .fini:

080493dc <_fini>:
 80493dc:	f3 0f 1e fb          	endbr32
 80493e0:	53                   	push   %ebx
 80493e1:	83 ec 08             	sub    $0x8,%esp
 80493e4:	e8 f7 fc ff ff       	call   80490e0 <__x86.get_pc_thunk.bx>
 80493e9:	81 c3 17 2c 00 00    	add    $0x2c17,%ebx
 80493ef:	83 c4 08             	add    $0x8,%esp
 80493f2:	5b                   	pop    %ebx
 80493f3:	c3                   	ret
