
./Ch15AntiDis_FakeCallInt:     file format elf32-i386


Disassembly of section .init:

08049000 <_init>:
 8049000:	f3 0f 1e fb          	endbr32
 8049004:	53                   	push   %ebx
 8049005:	83 ec 08             	sub    $0x8,%esp
 8049008:	e8 f3 00 00 00       	call   8049100 <__x86.get_pc_thunk.bx>
 804900d:	81 c3 f3 2f 00 00    	add    $0x2ff3,%ebx
 8049013:	8b 83 fc ff ff ff    	mov    -0x4(%ebx),%eax
 8049019:	85 c0                	test   %eax,%eax
 804901b:	74 02                	je     804901f <_init+0x1f>
 804901d:	ff d0                	call   *%eax
 804901f:	83 c4 08             	add    $0x8,%esp
 8049022:	5b                   	pop    %ebx
 8049023:	c3                   	ret

Disassembly of section .plt:

08049030 <.plt>:
 8049030:	ff 35 04 c0 04 08    	push   0x804c004
 8049036:	ff 25 08 c0 04 08    	jmp    *0x804c008
 804903c:	00 00                	add    %al,(%eax)
	...

08049040 <printf@plt>:
 8049040:	ff 25 0c c0 04 08    	jmp    *0x804c00c
 8049046:	68 00 00 00 00       	push   $0x0
 804904b:	e9 e0 ff ff ff       	jmp    8049030 <.plt>

08049050 <signal@plt>:
 8049050:	ff 25 10 c0 04 08    	jmp    *0x804c010
 8049056:	68 08 00 00 00       	push   $0x8
 804905b:	e9 d0 ff ff ff       	jmp    8049030 <.plt>

08049060 <puts@plt>:
 8049060:	ff 25 14 c0 04 08    	jmp    *0x804c014
 8049066:	68 10 00 00 00       	push   $0x10
 804906b:	e9 c0 ff ff ff       	jmp    8049030 <.plt>

08049070 <exit@plt>:
 8049070:	ff 25 18 c0 04 08    	jmp    *0x804c018
 8049076:	68 18 00 00 00       	push   $0x18
 804907b:	e9 b0 ff ff ff       	jmp    8049030 <.plt>

08049080 <strlen@plt>:
 8049080:	ff 25 1c c0 04 08    	jmp    *0x804c01c
 8049086:	68 20 00 00 00       	push   $0x20
 804908b:	e9 a0 ff ff ff       	jmp    8049030 <.plt>

08049090 <__libc_start_main@plt>:
 8049090:	ff 25 20 c0 04 08    	jmp    *0x804c020
 8049096:	68 28 00 00 00       	push   $0x28
 804909b:	e9 90 ff ff ff       	jmp    8049030 <.plt>

080490a0 <__isoc99_scanf@plt>:
 80490a0:	ff 25 24 c0 04 08    	jmp    *0x804c024
 80490a6:	68 30 00 00 00       	push   $0x30
 80490ab:	e9 80 ff ff ff       	jmp    8049030 <.plt>

Disassembly of section .text:

080490b0 <_start>:
 80490b0:	f3 0f 1e fb          	endbr32
 80490b4:	31 ed                	xor    %ebp,%ebp
 80490b6:	5e                   	pop    %esi
 80490b7:	89 e1                	mov    %esp,%ecx
 80490b9:	83 e4 f0             	and    $0xfffffff0,%esp
 80490bc:	50                   	push   %eax
 80490bd:	54                   	push   %esp
 80490be:	52                   	push   %edx
 80490bf:	e8 23 00 00 00       	call   80490e7 <_start+0x37>
 80490c4:	81 c3 3c 2f 00 00    	add    $0x2f3c,%ebx
 80490ca:	8d 83 00 d4 ff ff    	lea    -0x2c00(%ebx),%eax
 80490d0:	50                   	push   %eax
 80490d1:	8d 83 90 d3 ff ff    	lea    -0x2c70(%ebx),%eax
 80490d7:	50                   	push   %eax
 80490d8:	51                   	push   %ecx
 80490d9:	56                   	push   %esi
 80490da:	c7 c0 51 93 04 08    	mov    $0x8049351,%eax
 80490e0:	50                   	push   %eax
 80490e1:	e8 aa ff ff ff       	call   8049090 <__libc_start_main@plt>
 80490e6:	f4                   	hlt
 80490e7:	8b 1c 24             	mov    (%esp),%ebx
 80490ea:	c3                   	ret
 80490eb:	66 90                	xchg   %ax,%ax
 80490ed:	66 90                	xchg   %ax,%ax
 80490ef:	90                   	nop

080490f0 <_dl_relocate_static_pie>:
 80490f0:	f3 0f 1e fb          	endbr32
 80490f4:	c3                   	ret
 80490f5:	66 90                	xchg   %ax,%ax
 80490f7:	66 90                	xchg   %ax,%ax
 80490f9:	66 90                	xchg   %ax,%ax
 80490fb:	66 90                	xchg   %ax,%ax
 80490fd:	66 90                	xchg   %ax,%ax
 80490ff:	90                   	nop

08049100 <__x86.get_pc_thunk.bx>:
 8049100:	8b 1c 24             	mov    (%esp),%ebx
 8049103:	c3                   	ret
 8049104:	66 90                	xchg   %ax,%ax
 8049106:	66 90                	xchg   %ax,%ax
 8049108:	66 90                	xchg   %ax,%ax
 804910a:	66 90                	xchg   %ax,%ax
 804910c:	66 90                	xchg   %ax,%ax
 804910e:	66 90                	xchg   %ax,%ax

08049110 <deregister_tm_clones>:
 8049110:	b8 70 c2 04 08       	mov    $0x804c270,%eax
 8049115:	3d 70 c2 04 08       	cmp    $0x804c270,%eax
 804911a:	74 24                	je     8049140 <deregister_tm_clones+0x30>
 804911c:	b8 00 00 00 00       	mov    $0x0,%eax
 8049121:	85 c0                	test   %eax,%eax
 8049123:	74 1b                	je     8049140 <deregister_tm_clones+0x30>
 8049125:	55                   	push   %ebp
 8049126:	89 e5                	mov    %esp,%ebp
 8049128:	83 ec 14             	sub    $0x14,%esp
 804912b:	68 70 c2 04 08       	push   $0x804c270
 8049130:	ff d0                	call   *%eax
 8049132:	83 c4 10             	add    $0x10,%esp
 8049135:	c9                   	leave
 8049136:	c3                   	ret
 8049137:	8d b4 26 00 00 00 00 	lea    0x0(%esi,%eiz,1),%esi
 804913e:	66 90                	xchg   %ax,%ax
 8049140:	c3                   	ret
 8049141:	8d b4 26 00 00 00 00 	lea    0x0(%esi,%eiz,1),%esi
 8049148:	8d b4 26 00 00 00 00 	lea    0x0(%esi,%eiz,1),%esi
 804914f:	90                   	nop

08049150 <register_tm_clones>:
 8049150:	b8 70 c2 04 08       	mov    $0x804c270,%eax
 8049155:	2d 70 c2 04 08       	sub    $0x804c270,%eax
 804915a:	89 c2                	mov    %eax,%edx
 804915c:	c1 e8 1f             	shr    $0x1f,%eax
 804915f:	c1 fa 02             	sar    $0x2,%edx
 8049162:	01 d0                	add    %edx,%eax
 8049164:	d1 f8                	sar    $1,%eax
 8049166:	74 20                	je     8049188 <register_tm_clones+0x38>
 8049168:	ba 00 00 00 00       	mov    $0x0,%edx
 804916d:	85 d2                	test   %edx,%edx
 804916f:	74 17                	je     8049188 <register_tm_clones+0x38>
 8049171:	55                   	push   %ebp
 8049172:	89 e5                	mov    %esp,%ebp
 8049174:	83 ec 10             	sub    $0x10,%esp
 8049177:	50                   	push   %eax
 8049178:	68 70 c2 04 08       	push   $0x804c270
 804917d:	ff d2                	call   *%edx
 804917f:	83 c4 10             	add    $0x10,%esp
 8049182:	c9                   	leave
 8049183:	c3                   	ret
 8049184:	8d 74 26 00          	lea    0x0(%esi,%eiz,1),%esi
 8049188:	c3                   	ret
 8049189:	8d b4 26 00 00 00 00 	lea    0x0(%esi,%eiz,1),%esi

08049190 <__do_global_dtors_aux>:
 8049190:	f3 0f 1e fb          	endbr32
 8049194:	80 3d 70 c2 04 08 00 	cmpb   $0x0,0x804c270
 804919b:	75 1b                	jne    80491b8 <__do_global_dtors_aux+0x28>
 804919d:	55                   	push   %ebp
 804919e:	89 e5                	mov    %esp,%ebp
 80491a0:	83 ec 08             	sub    $0x8,%esp
 80491a3:	e8 68 ff ff ff       	call   8049110 <deregister_tm_clones>
 80491a8:	c6 05 70 c2 04 08 01 	movb   $0x1,0x804c270
 80491af:	c9                   	leave
 80491b0:	c3                   	ret
 80491b1:	8d b4 26 00 00 00 00 	lea    0x0(%esi,%eiz,1),%esi
 80491b8:	c3                   	ret
 80491b9:	8d b4 26 00 00 00 00 	lea    0x0(%esi,%eiz,1),%esi

080491c0 <frame_dummy>:
 80491c0:	f3 0f 1e fb          	endbr32
 80491c4:	eb 8a                	jmp    8049150 <register_tm_clones>

080491c6 <print_msg>:
 80491c6:	55                   	push   %ebp
 80491c7:	89 e5                	mov    %esp,%ebp
 80491c9:	83 ec 18             	sub    $0x18,%esp
 80491cc:	83 ec 0c             	sub    $0xc,%esp
 80491cf:	68 60 c0 04 08       	push   $0x804c060
 80491d4:	e8 a7 fe ff ff       	call   8049080 <strlen@plt>
 80491d9:	83 c4 10             	add    $0x10,%esp
 80491dc:	89 45 f4             	mov    %eax,-0xc(%ebp)
 80491df:	c7 45 e8 00 00 00 00 	movl   $0x0,-0x18(%ebp)
 80491e6:	eb 73                	jmp    804925b <print_msg+0x95>
 80491e8:	8b 45 e8             	mov    -0x18(%ebp),%eax
 80491eb:	ba 00 00 00 00       	mov    $0x0,%edx
 80491f0:	f7 75 f4             	divl   -0xc(%ebp)
 80491f3:	89 d0                	mov    %edx,%eax
 80491f5:	0f b6 80 60 c0 04 08 	movzbl 0x804c060(%eax),%eax
 80491fc:	0f be c8             	movsbl %al,%ecx
 80491ff:	8b 45 e8             	mov    -0x18(%ebp),%eax
 8049202:	83 c0 01             	add    $0x1,%eax
 8049205:	ba 00 00 00 00       	mov    $0x0,%edx
 804920a:	f7 75 f4             	divl   -0xc(%ebp)
 804920d:	89 d0                	mov    %edx,%eax
 804920f:	0f b6 80 60 c0 04 08 	movzbl 0x804c060(%eax),%eax
 8049216:	0f be c0             	movsbl %al,%eax
 8049219:	01 c8                	add    %ecx,%eax
 804921b:	01 45 ec             	add    %eax,-0x14(%ebp)
 804921e:	8b 45 e8             	mov    -0x18(%ebp),%eax
 8049221:	83 c0 01             	add    $0x1,%eax
 8049224:	ba 00 00 00 00       	mov    $0x0,%edx
 8049229:	f7 75 f4             	divl   -0xc(%ebp)
 804922c:	89 d0                	mov    %edx,%eax
 804922e:	0f b6 80 60 c0 04 08 	movzbl 0x804c060(%eax),%eax
 8049235:	0f be c8             	movsbl %al,%ecx
 8049238:	8b 45 e8             	mov    -0x18(%ebp),%eax
 804923b:	83 c0 02             	add    $0x2,%eax
 804923e:	ba 00 00 00 00       	mov    $0x0,%edx
 8049243:	f7 75 f4             	divl   -0xc(%ebp)
 8049246:	89 d0                	mov    %edx,%eax
 8049248:	0f b6 80 60 c0 04 08 	movzbl 0x804c060(%eax),%eax
 804924f:	0f be c0             	movsbl %al,%eax
 8049252:	01 c8                	add    %ecx,%eax
 8049254:	01 45 f0             	add    %eax,-0x10(%ebp)
 8049257:	83 45 e8 01          	addl   $0x1,-0x18(%ebp)
 804925b:	8b 45 f4             	mov    -0xc(%ebp),%eax
 804925e:	6b c0 64             	imul   $0x64,%eax,%eax
 8049261:	39 45 e8             	cmp    %eax,-0x18(%ebp)
 8049264:	72 82                	jb     80491e8 <print_msg+0x22>
 8049266:	8b 45 ec             	mov    -0x14(%ebp),%eax
 8049269:	3b 45 f0             	cmp    -0x10(%ebp),%eax
 804926c:	75 17                	jne    8049285 <print_msg+0xbf>
 804926e:	83 ec 08             	sub    $0x8,%esp
 8049271:	68 60 c0 04 08       	push   $0x804c060
 8049276:	68 08 a0 04 08       	push   $0x804a008
 804927b:	e8 c0 fd ff ff       	call   8049040 <printf@plt>
 8049280:	83 c4 10             	add    $0x10,%esp
 8049283:	eb 15                	jmp    804929a <print_msg+0xd4>
 8049285:	83 ec 08             	sub    $0x8,%esp
 8049288:	68 60 c0 04 08       	push   $0x804c060
 804928d:	68 08 a0 04 08       	push   $0x804a008
 8049292:	e8 a9 fd ff ff       	call   8049040 <printf@plt>
 8049297:	83 c4 10             	add    $0x10,%esp
 804929a:	90                   	nop
 804929b:	c9                   	leave
 804929c:	c3                   	ret

0804929d <call>:
 804929d:	55                   	push   %ebp
 804929e:	89 e5                	mov    %esp,%ebp
 80492a0:	83 ec 08             	sub    $0x8,%esp
 80492a3:	cc                   	int3
 80492a4:	e8 03 00 00 00       	call   80492ac <called>
 80492a9:	90                   	nop
 80492aa:	c9                   	leave
 80492ab:	c3                   	ret

080492ac <called>:
 80492ac:	55                   	push   %ebp
 80492ad:	89 e5                	mov    %esp,%ebp
 80492af:	83 ec 08             	sub    $0x8,%esp
 80492b2:	cc                   	int3
 80492b3:	e8 e5 ff ff ff       	call   804929d <call>
 80492b8:	90                   	nop
 80492b9:	c9                   	leave
 80492ba:	c3                   	ret

080492bb <print_good>:
 80492bb:	55                   	push   %ebp
 80492bc:	89 e5                	mov    %esp,%ebp
 80492be:	83 ec 08             	sub    $0x8,%esp
 80492c1:	83 ec 0c             	sub    $0xc,%esp
 80492c4:	68 0b a0 04 08       	push   $0x804a00b
 80492c9:	e8 92 fd ff ff       	call   8049060 <puts@plt>
 80492ce:	83 c4 10             	add    $0x10,%esp
 80492d1:	90                   	nop
 80492d2:	c9                   	leave
 80492d3:	c3                   	ret

080492d4 <print_again>:
 80492d4:	55                   	push   %ebp
 80492d5:	89 e5                	mov    %esp,%ebp
 80492d7:	83 ec 08             	sub    $0x8,%esp
 80492da:	83 ec 0c             	sub    $0xc,%esp
 80492dd:	68 15 a0 04 08       	push   $0x804a015
 80492e2:	e8 79 fd ff ff       	call   8049060 <puts@plt>
 80492e7:	83 c4 10             	add    $0x10,%esp
 80492ea:	90                   	nop
 80492eb:	c9                   	leave
 80492ec:	c3                   	ret

080492ed <check_code>:
 80492ed:	55                   	push   %ebp
 80492ee:	89 e5                	mov    %esp,%ebp
 80492f0:	83 ec 18             	sub    $0x18,%esp
 80492f3:	65 a1 14 00 00 00    	mov    %gs:0x14,%eax
 80492f9:	89 45 f4             	mov    %eax,-0xc(%ebp)
 80492fc:	31 c0                	xor    %eax,%eax
 80492fe:	83 ec 0c             	sub    $0xc,%esp
 8049301:	68 20 a0 04 08       	push   $0x804a020
 8049306:	e8 35 fd ff ff       	call   8049040 <printf@plt>
 804930b:	83 c4 10             	add    $0x10,%esp
 804930e:	83 ec 08             	sub    $0x8,%esp
 8049311:	8d 45 ec             	lea    -0x14(%ebp),%eax
 8049314:	50                   	push   %eax
 8049315:	68 35 a0 04 08       	push   $0x804a035
 804931a:	e8 81 fd ff ff       	call   80490a0 <__isoc99_scanf@plt>
 804931f:	83 c4 10             	add    $0x10,%esp
 8049322:	e8 04 00 00 00       	call   804932b <done>
 8049327:	8f                   	(bad)
 8049328:	4d                   	dec    %ebp
 8049329:	9b                   	fwait
	...

0804932b <done>:
 804932b:	58                   	pop    %eax
 804932c:	89 45 f0             	mov    %eax,-0x10(%ebp)
 804932f:	8b 45 f0             	mov    -0x10(%ebp),%eax
 8049332:	8b 10                	mov    (%eax),%edx
 8049334:	8b 45 ec             	mov    -0x14(%ebp),%eax
 8049337:	39 c2                	cmp    %eax,%edx
 8049339:	75 07                	jne    8049342 <done+0x17>
 804933b:	e8 7b ff ff ff       	call   80492bb <print_good>
 8049340:	eb 05                	jmp    8049347 <done+0x1c>
 8049342:	e8 8d ff ff ff       	call   80492d4 <print_again>
 8049347:	83 ec 0c             	sub    $0xc,%esp
 804934a:	6a 00                	push   $0x0
 804934c:	e8 1f fd ff ff       	call   8049070 <exit@plt>

08049351 <main>:
 8049351:	8d 4c 24 04          	lea    0x4(%esp),%ecx
 8049355:	83 e4 f0             	and    $0xfffffff0,%esp
 8049358:	ff 71 fc             	push   -0x4(%ecx)
 804935b:	55                   	push   %ebp
 804935c:	89 e5                	mov    %esp,%ebp
 804935e:	51                   	push   %ecx
 804935f:	83 ec 04             	sub    $0x4,%esp
 8049362:	e8 5f fe ff ff       	call   80491c6 <print_msg>
 8049367:	83 ec 08             	sub    $0x8,%esp
 804936a:	68 ed 92 04 08       	push   $0x80492ed
 804936f:	6a 05                	push   $0x5
 8049371:	e8 da fc ff ff       	call   8049050 <signal@plt>
 8049376:	83 c4 10             	add    $0x10,%esp
 8049379:	e8 1f ff ff ff       	call   804929d <call>
 804937e:	b8 00 00 00 00       	mov    $0x0,%eax
 8049383:	8b 4d fc             	mov    -0x4(%ebp),%ecx
 8049386:	c9                   	leave
 8049387:	8d 61 fc             	lea    -0x4(%ecx),%esp
 804938a:	c3                   	ret
 804938b:	66 90                	xchg   %ax,%ax
 804938d:	66 90                	xchg   %ax,%ax
 804938f:	90                   	nop

08049390 <__libc_csu_init>:
 8049390:	f3 0f 1e fb          	endbr32
 8049394:	55                   	push   %ebp
 8049395:	e8 6b 00 00 00       	call   8049405 <__x86.get_pc_thunk.bp>
 804939a:	81 c5 66 2c 00 00    	add    $0x2c66,%ebp
 80493a0:	57                   	push   %edi
 80493a1:	56                   	push   %esi
 80493a2:	53                   	push   %ebx
 80493a3:	83 ec 0c             	sub    $0xc,%esp
 80493a6:	89 eb                	mov    %ebp,%ebx
 80493a8:	8b 7c 24 28          	mov    0x28(%esp),%edi
 80493ac:	e8 4f fc ff ff       	call   8049000 <_init>
 80493b1:	8d 9d 10 ff ff ff    	lea    -0xf0(%ebp),%ebx
 80493b7:	8d 85 0c ff ff ff    	lea    -0xf4(%ebp),%eax
 80493bd:	29 c3                	sub    %eax,%ebx
 80493bf:	c1 fb 02             	sar    $0x2,%ebx
 80493c2:	74 29                	je     80493ed <__libc_csu_init+0x5d>
 80493c4:	31 f6                	xor    %esi,%esi
 80493c6:	8d b4 26 00 00 00 00 	lea    0x0(%esi,%eiz,1),%esi
 80493cd:	8d 76 00             	lea    0x0(%esi),%esi
 80493d0:	83 ec 04             	sub    $0x4,%esp
 80493d3:	57                   	push   %edi
 80493d4:	ff 74 24 2c          	push   0x2c(%esp)
 80493d8:	ff 74 24 2c          	push   0x2c(%esp)
 80493dc:	ff 94 b5 0c ff ff ff 	call   *-0xf4(%ebp,%esi,4)
 80493e3:	83 c6 01             	add    $0x1,%esi
 80493e6:	83 c4 10             	add    $0x10,%esp
 80493e9:	39 f3                	cmp    %esi,%ebx
 80493eb:	75 e3                	jne    80493d0 <__libc_csu_init+0x40>
 80493ed:	83 c4 0c             	add    $0xc,%esp
 80493f0:	5b                   	pop    %ebx
 80493f1:	5e                   	pop    %esi
 80493f2:	5f                   	pop    %edi
 80493f3:	5d                   	pop    %ebp
 80493f4:	c3                   	ret
 80493f5:	8d b4 26 00 00 00 00 	lea    0x0(%esi,%eiz,1),%esi
 80493fc:	8d 74 26 00          	lea    0x0(%esi,%eiz,1),%esi

08049400 <__libc_csu_fini>:
 8049400:	f3 0f 1e fb          	endbr32
 8049404:	c3                   	ret

08049405 <__x86.get_pc_thunk.bp>:
 8049405:	8b 2c 24             	mov    (%esp),%ebp
 8049408:	c3                   	ret

Disassembly of section .fini:

0804940c <_fini>:
 804940c:	f3 0f 1e fb          	endbr32
 8049410:	53                   	push   %ebx
 8049411:	83 ec 08             	sub    $0x8,%esp
 8049414:	e8 e7 fc ff ff       	call   8049100 <__x86.get_pc_thunk.bx>
 8049419:	81 c3 e7 2b 00 00    	add    $0x2be7,%ebx
 804941f:	83 c4 08             	add    $0x8,%esp
 8049422:	5b                   	pop    %ebx
 8049423:	c3                   	ret
