
./Ch15AntiDis_FakeCond:     file format elf32-i386


Disassembly of section .init:

08049000 <_init>:
 8049000:	f3 0f 1e fb          	endbr32
 8049004:	53                   	push   %ebx
 8049005:	83 ec 08             	sub    $0x8,%esp
 8049008:	e8 03 01 00 00       	call   8049110 <__x86.get_pc_thunk.bx>
 804900d:	81 c3 f3 2f 00 00    	add    $0x2ff3,%ebx
 8049013:	8b 83 fc ff ff ff    	mov    -0x4(%ebx),%eax
 8049019:	85 c0                	test   %eax,%eax
 804901b:	74 02                	je     804901f <_init+0x1f>
 804901d:	ff d0                	call   *%eax
 804901f:	83 c4 08             	add    $0x8,%esp
 8049022:	5b                   	pop    %ebx
 8049023:	c3                   	ret

Disassembly of section .plt:

08049030 <.plt>:
 8049030:	ff 35 04 c0 04 08    	push   0x804c004
 8049036:	ff 25 08 c0 04 08    	jmp    *0x804c008
 804903c:	00 00                	add    %al,(%eax)
	...

08049040 <printf@plt>:
 8049040:	ff 25 0c c0 04 08    	jmp    *0x804c00c
 8049046:	68 00 00 00 00       	push   $0x0
 804904b:	e9 e0 ff ff ff       	jmp    8049030 <.plt>

08049050 <__stack_chk_fail@plt>:
 8049050:	ff 25 10 c0 04 08    	jmp    *0x804c010
 8049056:	68 08 00 00 00       	push   $0x8
 804905b:	e9 d0 ff ff ff       	jmp    8049030 <.plt>

08049060 <puts@plt>:
 8049060:	ff 25 14 c0 04 08    	jmp    *0x804c014
 8049066:	68 10 00 00 00       	push   $0x10
 804906b:	e9 c0 ff ff ff       	jmp    8049030 <.plt>

08049070 <exit@plt>:
 8049070:	ff 25 18 c0 04 08    	jmp    *0x804c018
 8049076:	68 18 00 00 00       	push   $0x18
 804907b:	e9 b0 ff ff ff       	jmp    8049030 <.plt>

08049080 <strlen@plt>:
 8049080:	ff 25 1c c0 04 08    	jmp    *0x804c01c
 8049086:	68 20 00 00 00       	push   $0x20
 804908b:	e9 a0 ff ff ff       	jmp    8049030 <.plt>

08049090 <__libc_start_main@plt>:
 8049090:	ff 25 20 c0 04 08    	jmp    *0x804c020
 8049096:	68 28 00 00 00       	push   $0x28
 804909b:	e9 90 ff ff ff       	jmp    8049030 <.plt>

080490a0 <__isoc99_scanf@plt>:
 80490a0:	ff 25 24 c0 04 08    	jmp    *0x804c024
 80490a6:	68 30 00 00 00       	push   $0x30
 80490ab:	e9 80 ff ff ff       	jmp    8049030 <.plt>

080490b0 <ptrace@plt>:
 80490b0:	ff 25 28 c0 04 08    	jmp    *0x804c028
 80490b6:	68 38 00 00 00       	push   $0x38
 80490bb:	e9 70 ff ff ff       	jmp    8049030 <.plt>

Disassembly of section .text:

080490c0 <_start>:
 80490c0:	f3 0f 1e fb          	endbr32
 80490c4:	31 ed                	xor    %ebp,%ebp
 80490c6:	5e                   	pop    %esi
 80490c7:	89 e1                	mov    %esp,%ecx
 80490c9:	83 e4 f0             	and    $0xfffffff0,%esp
 80490cc:	50                   	push   %eax
 80490cd:	54                   	push   %esp
 80490ce:	52                   	push   %edx
 80490cf:	e8 23 00 00 00       	call   80490f7 <_start+0x37>
 80490d4:	81 c3 2c 2f 00 00    	add    $0x2f2c,%ebx
 80490da:	8d 83 20 d4 ff ff    	lea    -0x2be0(%ebx),%eax
 80490e0:	50                   	push   %eax
 80490e1:	8d 83 b0 d3 ff ff    	lea    -0x2c50(%ebx),%eax
 80490e7:	50                   	push   %eax
 80490e8:	51                   	push   %ecx
 80490e9:	56                   	push   %esi
 80490ea:	c7 c0 16 93 04 08    	mov    $0x8049316,%eax
 80490f0:	50                   	push   %eax
 80490f1:	e8 9a ff ff ff       	call   8049090 <__libc_start_main@plt>
 80490f6:	f4                   	hlt
 80490f7:	8b 1c 24             	mov    (%esp),%ebx
 80490fa:	c3                   	ret
 80490fb:	66 90                	xchg   %ax,%ax
 80490fd:	66 90                	xchg   %ax,%ax
 80490ff:	90                   	nop

08049100 <_dl_relocate_static_pie>:
 8049100:	f3 0f 1e fb          	endbr32
 8049104:	c3                   	ret
 8049105:	66 90                	xchg   %ax,%ax
 8049107:	66 90                	xchg   %ax,%ax
 8049109:	66 90                	xchg   %ax,%ax
 804910b:	66 90                	xchg   %ax,%ax
 804910d:	66 90                	xchg   %ax,%ax
 804910f:	90                   	nop

08049110 <__x86.get_pc_thunk.bx>:
 8049110:	8b 1c 24             	mov    (%esp),%ebx
 8049113:	c3                   	ret
 8049114:	66 90                	xchg   %ax,%ax
 8049116:	66 90                	xchg   %ax,%ax
 8049118:	66 90                	xchg   %ax,%ax
 804911a:	66 90                	xchg   %ax,%ax
 804911c:	66 90                	xchg   %ax,%ax
 804911e:	66 90                	xchg   %ax,%ax

08049120 <deregister_tm_clones>:
 8049120:	b8 f8 c1 04 08       	mov    $0x804c1f8,%eax
 8049125:	3d f8 c1 04 08       	cmp    $0x804c1f8,%eax
 804912a:	74 24                	je     8049150 <deregister_tm_clones+0x30>
 804912c:	b8 00 00 00 00       	mov    $0x0,%eax
 8049131:	85 c0                	test   %eax,%eax
 8049133:	74 1b                	je     8049150 <deregister_tm_clones+0x30>
 8049135:	55                   	push   %ebp
 8049136:	89 e5                	mov    %esp,%ebp
 8049138:	83 ec 14             	sub    $0x14,%esp
 804913b:	68 f8 c1 04 08       	push   $0x804c1f8
 8049140:	ff d0                	call   *%eax
 8049142:	83 c4 10             	add    $0x10,%esp
 8049145:	c9                   	leave
 8049146:	c3                   	ret
 8049147:	8d b4 26 00 00 00 00 	lea    0x0(%esi,%eiz,1),%esi
 804914e:	66 90                	xchg   %ax,%ax
 8049150:	c3                   	ret
 8049151:	8d b4 26 00 00 00 00 	lea    0x0(%esi,%eiz,1),%esi
 8049158:	8d b4 26 00 00 00 00 	lea    0x0(%esi,%eiz,1),%esi
 804915f:	90                   	nop

08049160 <register_tm_clones>:
 8049160:	b8 f8 c1 04 08       	mov    $0x804c1f8,%eax
 8049165:	2d f8 c1 04 08       	sub    $0x804c1f8,%eax
 804916a:	89 c2                	mov    %eax,%edx
 804916c:	c1 e8 1f             	shr    $0x1f,%eax
 804916f:	c1 fa 02             	sar    $0x2,%edx
 8049172:	01 d0                	add    %edx,%eax
 8049174:	d1 f8                	sar    $1,%eax
 8049176:	74 20                	je     8049198 <register_tm_clones+0x38>
 8049178:	ba 00 00 00 00       	mov    $0x0,%edx
 804917d:	85 d2                	test   %edx,%edx
 804917f:	74 17                	je     8049198 <register_tm_clones+0x38>
 8049181:	55                   	push   %ebp
 8049182:	89 e5                	mov    %esp,%ebp
 8049184:	83 ec 10             	sub    $0x10,%esp
 8049187:	50                   	push   %eax
 8049188:	68 f8 c1 04 08       	push   $0x804c1f8
 804918d:	ff d2                	call   *%edx
 804918f:	83 c4 10             	add    $0x10,%esp
 8049192:	c9                   	leave
 8049193:	c3                   	ret
 8049194:	8d 74 26 00          	lea    0x0(%esi,%eiz,1),%esi
 8049198:	c3                   	ret
 8049199:	8d b4 26 00 00 00 00 	lea    0x0(%esi,%eiz,1),%esi

080491a0 <__do_global_dtors_aux>:
 80491a0:	f3 0f 1e fb          	endbr32
 80491a4:	80 3d f6 c1 04 08 00 	cmpb   $0x0,0x804c1f6
 80491ab:	75 1b                	jne    80491c8 <__do_global_dtors_aux+0x28>
 80491ad:	55                   	push   %ebp
 80491ae:	89 e5                	mov    %esp,%ebp
 80491b0:	83 ec 08             	sub    $0x8,%esp
 80491b3:	e8 68 ff ff ff       	call   8049120 <deregister_tm_clones>
 80491b8:	c6 05 f6 c1 04 08 01 	movb   $0x1,0x804c1f6
 80491bf:	c9                   	leave
 80491c0:	c3                   	ret
 80491c1:	8d b4 26 00 00 00 00 	lea    0x0(%esi,%eiz,1),%esi
 80491c8:	c3                   	ret
 80491c9:	8d b4 26 00 00 00 00 	lea    0x0(%esi,%eiz,1),%esi

080491d0 <frame_dummy>:
 80491d0:	f3 0f 1e fb          	endbr32
 80491d4:	eb 8a                	jmp    8049160 <register_tm_clones>

080491d6 <print_msg>:
 80491d6:	55                   	push   %ebp
 80491d7:	89 e5                	mov    %esp,%ebp
 80491d9:	83 ec 18             	sub    $0x18,%esp
 80491dc:	83 ec 0c             	sub    $0xc,%esp
 80491df:	68 60 c0 04 08       	push   $0x804c060
 80491e4:	e8 97 fe ff ff       	call   8049080 <strlen@plt>
 80491e9:	83 c4 10             	add    $0x10,%esp
 80491ec:	89 45 f4             	mov    %eax,-0xc(%ebp)
 80491ef:	c7 45 e8 00 00 00 00 	movl   $0x0,-0x18(%ebp)
 80491f6:	eb 73                	jmp    804926b <print_msg+0x95>
 80491f8:	8b 45 e8             	mov    -0x18(%ebp),%eax
 80491fb:	ba 00 00 00 00       	mov    $0x0,%edx
 8049200:	f7 75 f4             	divl   -0xc(%ebp)
 8049203:	89 d0                	mov    %edx,%eax
 8049205:	0f b6 80 60 c0 04 08 	movzbl 0x804c060(%eax),%eax
 804920c:	0f be c8             	movsbl %al,%ecx
 804920f:	8b 45 e8             	mov    -0x18(%ebp),%eax
 8049212:	83 c0 01             	add    $0x1,%eax
 8049215:	ba 00 00 00 00       	mov    $0x0,%edx
 804921a:	f7 75 f4             	divl   -0xc(%ebp)
 804921d:	89 d0                	mov    %edx,%eax
 804921f:	0f b6 80 60 c0 04 08 	movzbl 0x804c060(%eax),%eax
 8049226:	0f be c0             	movsbl %al,%eax
 8049229:	01 c8                	add    %ecx,%eax
 804922b:	01 45 ec             	add    %eax,-0x14(%ebp)
 804922e:	8b 45 e8             	mov    -0x18(%ebp),%eax
 8049231:	83 c0 01             	add    $0x1,%eax
 8049234:	ba 00 00 00 00       	mov    $0x0,%edx
 8049239:	f7 75 f4             	divl   -0xc(%ebp)
 804923c:	89 d0                	mov    %edx,%eax
 804923e:	0f b6 80 60 c0 04 08 	movzbl 0x804c060(%eax),%eax
 8049245:	0f be c8             	movsbl %al,%ecx
 8049248:	8b 45 e8             	mov    -0x18(%ebp),%eax
 804924b:	83 c0 02             	add    $0x2,%eax
 804924e:	ba 00 00 00 00       	mov    $0x0,%edx
 8049253:	f7 75 f4             	divl   -0xc(%ebp)
 8049256:	89 d0                	mov    %edx,%eax
 8049258:	0f b6 80 60 c0 04 08 	movzbl 0x804c060(%eax),%eax
 804925f:	0f be c0             	movsbl %al,%eax
 8049262:	01 c8                	add    %ecx,%eax
 8049264:	01 45 f0             	add    %eax,-0x10(%ebp)
 8049267:	83 45 e8 01          	addl   $0x1,-0x18(%ebp)
 804926b:	8b 45 f4             	mov    -0xc(%ebp),%eax
 804926e:	6b c0 64             	imul   $0x64,%eax,%eax
 8049271:	39 45 e8             	cmp    %eax,-0x18(%ebp)
 8049274:	72 82                	jb     80491f8 <print_msg+0x22>
 8049276:	8b 45 ec             	mov    -0x14(%ebp),%eax
 8049279:	3b 45 f0             	cmp    -0x10(%ebp),%eax
 804927c:	75 17                	jne    8049295 <print_msg+0xbf>
 804927e:	83 ec 08             	sub    $0x8,%esp
 8049281:	68 60 c0 04 08       	push   $0x804c060
 8049286:	68 08 a0 04 08       	push   $0x804a008
 804928b:	e8 b0 fd ff ff       	call   8049040 <printf@plt>
 8049290:	83 c4 10             	add    $0x10,%esp
 8049293:	eb 15                	jmp    80492aa <print_msg+0xd4>
 8049295:	83 ec 08             	sub    $0x8,%esp
 8049298:	68 60 c0 04 08       	push   $0x804c060
 804929d:	68 08 a0 04 08       	push   $0x804a008
 80492a2:	e8 99 fd ff ff       	call   8049040 <printf@plt>
 80492a7:	83 c4 10             	add    $0x10,%esp
 80492aa:	90                   	nop
 80492ab:	c9                   	leave
 80492ac:	c3                   	ret

080492ad <print_good>:
 80492ad:	55                   	push   %ebp
 80492ae:	89 e5                	mov    %esp,%ebp
 80492b0:	83 ec 08             	sub    $0x8,%esp
 80492b3:	83 ec 0c             	sub    $0xc,%esp
 80492b6:	68 0b a0 04 08       	push   $0x804a00b
 80492bb:	e8 a0 fd ff ff       	call   8049060 <puts@plt>
 80492c0:	83 c4 10             	add    $0x10,%esp
 80492c3:	90                   	nop
 80492c4:	c9                   	leave
 80492c5:	c3                   	ret

080492c6 <print_again>:
 80492c6:	55                   	push   %ebp
 80492c7:	89 e5                	mov    %esp,%ebp
 80492c9:	83 ec 08             	sub    $0x8,%esp
 80492cc:	83 ec 0c             	sub    $0xc,%esp
 80492cf:	68 15 a0 04 08       	push   $0x804a015
 80492d4:	e8 87 fd ff ff       	call   8049060 <puts@plt>
 80492d9:	83 c4 10             	add    $0x10,%esp
 80492dc:	90                   	nop
 80492dd:	c9                   	leave
 80492de:	c3                   	ret

080492df <detectTrace>:
 80492df:	55                   	push   %ebp
 80492e0:	89 e5                	mov    %esp,%ebp
 80492e2:	83 ec 08             	sub    $0x8,%esp
 80492e5:	6a 00                	push   $0x0
 80492e7:	6a 01                	push   $0x1
 80492e9:	6a 00                	push   $0x0
 80492eb:	6a 00                	push   $0x0
 80492ed:	e8 be fd ff ff       	call   80490b0 <ptrace@plt>
 80492f2:	83 c4 10             	add    $0x10,%esp
 80492f5:	85 c0                	test   %eax,%eax
 80492f7:	79 1a                	jns    8049313 <detectTrace+0x34>
 80492f9:	83 ec 0c             	sub    $0xc,%esp
 80492fc:	68 20 a0 04 08       	push   $0x804a020
 8049301:	e8 5a fd ff ff       	call   8049060 <puts@plt>
 8049306:	83 c4 10             	add    $0x10,%esp
 8049309:	83 ec 0c             	sub    $0xc,%esp
 804930c:	6a 01                	push   $0x1
 804930e:	e8 5d fd ff ff       	call   8049070 <exit@plt>
 8049313:	90                   	nop
 8049314:	c9                   	leave
 8049315:	c3                   	ret

08049316 <main>:
 8049316:	8d 4c 24 04          	lea    0x4(%esp),%ecx
 804931a:	83 e4 f0             	and    $0xfffffff0,%esp
 804931d:	ff 71 fc             	push   -0x4(%ecx)
 8049320:	55                   	push   %ebp
 8049321:	89 e5                	mov    %esp,%ebp
 8049323:	51                   	push   %ecx
 8049324:	83 ec 24             	sub    $0x24,%esp
 8049327:	89 c8                	mov    %ecx,%eax
 8049329:	8b 40 04             	mov    0x4(%eax),%eax
 804932c:	89 45 e4             	mov    %eax,-0x1c(%ebp)
 804932f:	65 a1 14 00 00 00    	mov    %gs:0x14,%eax
 8049335:	89 45 f4             	mov    %eax,-0xc(%ebp)
 8049338:	31 c0                	xor    %eax,%eax
 804933a:	e8 97 fe ff ff       	call   80491d6 <print_msg>
 804933f:	50                   	push   %eax
 8049340:	39 c0                	cmp    %eax,%eax
 8049342:	74 01                	je     8049345 <main+0x2f>
 8049344:	0f 58 c7             	addps  %xmm7,%xmm0
 8049347:	45                   	inc    %ebp
 8049348:	f0 d2 fa             	lock sar %cl,%dl
 804934b:	5c                   	pop    %esp
 804934c:	00 83 ec 0c 68 58    	add    %al,0x58680cec(%ebx)
 8049352:	a0 04 08 e8 e6       	mov    0xe6e80804,%al
 8049357:	fc                   	cld
 8049358:	ff                   	(bad)
 8049359:	ff 83 c4 10 83 ec    	incl   -0x137cef3c(%ebx)
 804935f:	08 8d 45 ec 50 68    	or     %cl,0x6850ec45(%ebp)
 8049365:	6d                   	insl   (%dx),%es:(%edi)
 8049366:	a0 04 08 e8 32       	mov    0x32e80804,%al
 804936b:	fd                   	std
 804936c:	ff                   	(bad)
 804936d:	ff 83 c4 10 8b 45    	incl   0x458b10c4(%ebx)
 8049373:	ec                   	in     (%dx),%al
 8049374:	39 45 f0             	cmp    %eax,-0x10(%ebp)
 8049377:	75 07                	jne    8049380 <main+0x6a>
 8049379:	e8 2f ff ff ff       	call   80492ad <print_good>
 804937e:	eb 05                	jmp    8049385 <main+0x6f>
 8049380:	e8 41 ff ff ff       	call   80492c6 <print_again>
 8049385:	b8 00 00 00 00       	mov    $0x0,%eax
 804938a:	8b 55 f4             	mov    -0xc(%ebp),%edx
 804938d:	65 33 15 14 00 00 00 	xor    %gs:0x14,%edx
 8049394:	74 05                	je     804939b <main+0x85>
 8049396:	e8 b5 fc ff ff       	call   8049050 <__stack_chk_fail@plt>
 804939b:	8b 4d fc             	mov    -0x4(%ebp),%ecx
 804939e:	c9                   	leave
 804939f:	8d 61 fc             	lea    -0x4(%ecx),%esp
 80493a2:	c3                   	ret
 80493a3:	66 90                	xchg   %ax,%ax
 80493a5:	66 90                	xchg   %ax,%ax
 80493a7:	66 90                	xchg   %ax,%ax
 80493a9:	66 90                	xchg   %ax,%ax
 80493ab:	66 90                	xchg   %ax,%ax
 80493ad:	66 90                	xchg   %ax,%ax
 80493af:	90                   	nop

080493b0 <__libc_csu_init>:
 80493b0:	f3 0f 1e fb          	endbr32
 80493b4:	55                   	push   %ebp
 80493b5:	e8 6b 00 00 00       	call   8049425 <__x86.get_pc_thunk.bp>
 80493ba:	81 c5 46 2c 00 00    	add    $0x2c46,%ebp
 80493c0:	57                   	push   %edi
 80493c1:	56                   	push   %esi
 80493c2:	53                   	push   %ebx
 80493c3:	83 ec 0c             	sub    $0xc,%esp
 80493c6:	89 eb                	mov    %ebp,%ebx
 80493c8:	8b 7c 24 28          	mov    0x28(%esp),%edi
 80493cc:	e8 2f fc ff ff       	call   8049000 <_init>
 80493d1:	8d 9d 10 ff ff ff    	lea    -0xf0(%ebp),%ebx
 80493d7:	8d 85 08 ff ff ff    	lea    -0xf8(%ebp),%eax
 80493dd:	29 c3                	sub    %eax,%ebx
 80493df:	c1 fb 02             	sar    $0x2,%ebx
 80493e2:	74 29                	je     804940d <__libc_csu_init+0x5d>
 80493e4:	31 f6                	xor    %esi,%esi
 80493e6:	8d b4 26 00 00 00 00 	lea    0x0(%esi,%eiz,1),%esi
 80493ed:	8d 76 00             	lea    0x0(%esi),%esi
 80493f0:	83 ec 04             	sub    $0x4,%esp
 80493f3:	57                   	push   %edi
 80493f4:	ff 74 24 2c          	push   0x2c(%esp)
 80493f8:	ff 74 24 2c          	push   0x2c(%esp)
 80493fc:	ff 94 b5 08 ff ff ff 	call   *-0xf8(%ebp,%esi,4)
 8049403:	83 c6 01             	add    $0x1,%esi
 8049406:	83 c4 10             	add    $0x10,%esp
 8049409:	39 f3                	cmp    %esi,%ebx
 804940b:	75 e3                	jne    80493f0 <__libc_csu_init+0x40>
 804940d:	83 c4 0c             	add    $0xc,%esp
 8049410:	5b                   	pop    %ebx
 8049411:	5e                   	pop    %esi
 8049412:	5f                   	pop    %edi
 8049413:	5d                   	pop    %ebp
 8049414:	c3                   	ret
 8049415:	8d b4 26 00 00 00 00 	lea    0x0(%esi,%eiz,1),%esi
 804941c:	8d 74 26 00          	lea    0x0(%esi,%eiz,1),%esi

08049420 <__libc_csu_fini>:
 8049420:	f3 0f 1e fb          	endbr32
 8049424:	c3                   	ret

08049425 <__x86.get_pc_thunk.bp>:
 8049425:	8b 2c 24             	mov    (%esp),%ebp
 8049428:	c3                   	ret

Disassembly of section .fini:

0804942c <_fini>:
 804942c:	f3 0f 1e fb          	endbr32
 8049430:	53                   	push   %ebx
 8049431:	83 ec 08             	sub    $0x8,%esp
 8049434:	e8 d7 fc ff ff       	call   8049110 <__x86.get_pc_thunk.bx>
 8049439:	81 c3 c7 2b 00 00    	add    $0x2bc7,%ebx
 804943f:	83 c4 08             	add    $0x8,%esp
 8049442:	5b                   	pop    %ebx
 8049443:	c3                   	ret
